target datalayout = "e-m:e-p270:32:32-p271:32:32-p272:64:64-i64:64-i128:128-f80:128-n8:16:32:64-S128"
target triple = "x86_64-pc-linux-gnu"

@gctx = internal global ptr null, align 8
@mdata_used = internal global i8 0, align 1
@mdata = internal global ptr null, align 8

; Function Attrs: nounwind uwtable
define dso_local ptr @php_pcre_create_match_data(i32 noundef %0, ptr noundef %1) #0 {
  %3 = alloca ptr, align 8
  %4 = alloca i32, align 4
  %5 = alloca ptr, align 8
  %6 = alloca i32, align 4
  %7 = alloca i32, align 4
  store i32 %0, ptr %4, align 4, !tbaa !13
  store ptr %1, ptr %5, align 8, !tbaa !11
  %8 = load i8, ptr @mdata_used, align 1, !tbaa !9, !range !17, !noundef !18
  %9 = trunc i8 %8 to i1
  %10 = xor i1 %9, true
  %11 = xor i1 %10, true
  %12 = xor i1 %11, true
  %13 = zext i1 %12 to i32
  %14 = sext i32 %13 to i64
  %15 = call i64 @llvm.expect.i64(i64 %14, i64 1)
  %16 = icmp ne i64 %15, 0
  br i1 %16, label %17, label %36

17:                                               ; preds = %2
  call void @llvm.lifetime.start.p0(i64 4, ptr %6) #17
  store i32 0, ptr %6, align 4, !tbaa !13
  %18 = load i32, ptr %4, align 4, !tbaa !13
  %19 = icmp ne i32 %18, 0
  br i1 %19, label %23, label %20

20:                                               ; preds = %17
  %21 = load ptr, ptr %5, align 8, !tbaa !11
  %22 = call i32 @php_pcre2_pattern_info(ptr noundef %21, i32 noundef 4, ptr noundef %4)
  store i32 %22, ptr %6, align 4, !tbaa !13
  br label %23

23:                                               ; preds = %20, %17
  %24 = load i32, ptr %6, align 4, !tbaa !13
  %25 = icmp sge i32 %24, 0
  br i1 %25, label %26, label %32

26:                                               ; preds = %23
  %27 = load i32, ptr %4, align 4, !tbaa !13
  %28 = add i32 %27, 1
  %29 = icmp ule i32 %28, 32
  br i1 %29, label %30, label %32

30:                                               ; preds = %26
  store i8 1, ptr @mdata_used, align 1, !tbaa !9
  %31 = load ptr, ptr @mdata, align 8, !tbaa !73
  store ptr %31, ptr %3, align 8
  store i32 1, ptr %7, align 4
  br label %33

32:                                               ; preds = %26, %23
  store i32 0, ptr %7, align 4
  br label %33

33:                                               ; preds = %32, %30
  call void @llvm.lifetime.end.p0(i64 4, ptr %6) #17
  %34 = load i32, ptr %7, align 4
  switch i32 %34, label %42 [
    i32 0, label %35
    i32 1, label %40
  ]

35:                                               ; preds = %33
  br label %36

36:                                               ; preds = %35, %2
  %37 = load ptr, ptr %5, align 8, !tbaa !11
  %38 = load ptr, ptr @gctx, align 8, !tbaa !51
  %39 = call ptr @php_pcre2_match_data_create_from_pattern(ptr noundef %37, ptr noundef %38)
  store ptr %39, ptr %3, align 8
  br label %40

40:                                               ; preds = %36, %33
  %41 = load ptr, ptr %3, align 8
  ret ptr %41

42:                                               ; preds = %33
  unreachable
}