; Function Attrs: nounwind uwtable
define dso_local ptr @php_pcre_create_match_data(i32 noundef %0, ptr noundef %1) local_unnamed_addr #0 {
  %3 = alloca i32, align 4
  store i32 %0, ptr %3, align 4, !tbaa !51
  %.b9 = load i1, ptr @mdata_used, align 1
  br i1 %.b9, label %.thread, label %4, !prof !47

4:                                                ; preds = %2
  %.not = icmp eq i32 %0, 0
  br i1 %.not, label %5, label %.critedge

5:                                                ; preds = %4
  %6 = call i32 @php_pcre2_pattern_info(ptr noundef %1, i32 noundef 4, ptr noundef nonnull %3) #24
  %7 = icmp sgt i32 %6, -1
  br i1 %7, label %..critedge_crit_edge, label %.thread

..critedge_crit_edge:                             ; preds = %5
  %.pre = load i32, ptr %3, align 4, !tbaa !51
  br label %.critedge

.critedge:                                        ; preds = %..critedge_crit_edge, %4
  %8 = phi i32 [ %.pre, %..critedge_crit_edge ], [ %0, %4 ]
  %9 = add i32 %8, 1
  %10 = icmp ult i32 %9, 33
  br i1 %10, label %11, label %.thread

11:                                               ; preds = %.critedge
  store i1 true, ptr @mdata_used, align 1
  %12 = load ptr, ptr @mdata, align 8, !tbaa !66
  br label %15

.thread:                                          ; preds = %5, %.critedge, %2
  %13 = load ptr, ptr @gctx, align 8, !tbaa !46
  %14 = call ptr @php_pcre2_match_data_create_from_pattern(ptr noundef %1, ptr noundef %13) #24
  br label %15

15:                                               ; preds = %11, %.thread
  %.1 = phi ptr [ %12, %11 ], [ %14, %.thread ]
  ret ptr %.1
}